target datalayout = "e-m:e-p270:32:32-p271:32:32-p272:64:64-i64:64-i128:128-f80:128-n8:16:32:64-S128"
target triple = "x86_64-pc-linux-gnu"

%"class.std::unique_ptr" = type { %"struct.std::__uniq_ptr_data" }
%"struct.std::__uniq_ptr_data" = type { %"class.std::__uniq_ptr_impl" }
%"class.std::__uniq_ptr_impl" = type { %"class.std::tuple" }
%"class.std::tuple" = type { %"struct.std::_Tuple_impl" }
%"struct.std::_Tuple_impl" = type { %"struct.std::_Head_base.5" }
%"struct.std::_Head_base.5" = type { ptr }
%"struct.faiss::(anonymous namespace)::PreTransformDistanceComputer" = type { %"struct.faiss::DistanceComputer", ptr, %"class.std::unique_ptr.21", %"class.std::unique_ptr" }
%"struct.faiss::DistanceComputer" = type { ptr }
%"class.std::unique_ptr.21" = type { %"struct.std::__uniq_ptr_data.22" }
%"struct.std::__uniq_ptr_data.22" = type { %"class.std::__uniq_ptr_impl.23" }
%"class.std::__uniq_ptr_impl.23" = type { %"class.std::tuple.24" }
%"class.std::tuple.24" = type { %"struct.std::_Tuple_impl.25" }
%"struct.std::_Tuple_impl.25" = type { %"struct.std::_Head_base.28" }
%"struct.std::_Head_base.28" = type { ptr }

; Function Attrs: mustprogress nounwind uwtable
define linkonce_odr noundef nonnull align 8 dereferenceable(8) ptr @_ZNSt10_Head_baseILm0EPN5faiss16DistanceComputerELb0EE7_M_headERKS3_(ptr noundef nonnull align 8 dereferenceable(8) %0) #0 comdat align 2 {
  %2 = alloca ptr, align 8
  store ptr %0, ptr %2, align 8, !tbaa !208
  %3 = load ptr, ptr %2, align 8, !tbaa !208
  %4 = getelementptr inbounds nuw %"struct.std::_Head_base.28", ptr %3, i32 0, i32 0
  ret ptr %4
}

; Function Attrs: mustprogress nounwind uwtable
define linkonce_odr noundef nonnull align 8 dereferenceable(8) ptr @_ZNSt11_Tuple_implILm0EJPN5faiss16DistanceComputerESt14default_deleteIS1_EEE7_M_headERKS5_(ptr noundef nonnull align 8 dereferenceable(8) %0) #0 comdat align 2 {
  %2 = alloca ptr, align 8
  store ptr %0, ptr %2, align 8, !tbaa !204
  %3 = load ptr, ptr %2, align 8, !tbaa !204
  %4 = call noundef nonnull align 8 dereferenceable(8) ptr @_ZNSt10_Head_baseILm0EPN5faiss16DistanceComputerELb0EE7_M_headERKS3_(ptr noundef nonnull align 8 dereferenceable(8) %3) #18
  ret ptr %4
}

; Function Attrs: mustprogress nounwind uwtable
define linkonce_odr noundef nonnull align 8 dereferenceable(8) ptr @_ZSt12__get_helperILm0EPN5faiss16DistanceComputerEJSt14default_deleteIS1_EEERKT0_RKSt11_Tuple_implIXT_EJS5_DpT1_EE(ptr noundef nonnull align 8 dereferenceable(8) %0) #0 comdat {
  %2 = alloca ptr, align 8
  store ptr %0, ptr %2, align 8, !tbaa !204
  %3 = load ptr, ptr %2, align 8, !tbaa !204
  %4 = call noundef nonnull align 8 dereferenceable(8) ptr @_ZNSt11_Tuple_implILm0EJPN5faiss16DistanceComputerESt14default_deleteIS1_EEE7_M_headERKS5_(ptr noundef nonnull align 8 dereferenceable(8) %3) #18
  ret ptr %4
}

; Function Attrs: mustprogress nounwind uwtable
define linkonce_odr noundef nonnull align 8 dereferenceable(8) ptr @_ZSt3getILm0EJPN5faiss16DistanceComputerESt14default_deleteIS1_EEERKNSt13tuple_elementIXT_ESt5tupleIJDpT0_EEE4typeERKS9_(ptr noundef nonnull align 8 dereferenceable(8) %0) #0 comdat {
  %2 = alloca ptr, align 8
  store ptr %0, ptr %2, align 8, !tbaa !202
  %3 = load ptr, ptr %2, align 8, !tbaa !202
  %4 = call noundef nonnull align 8 dereferenceable(8) ptr @_ZSt12__get_helperILm0EPN5faiss16DistanceComputerEJSt14default_deleteIS1_EEERKT0_RKSt11_Tuple_implIXT_EJS5_DpT1_EE(ptr noundef nonnull align 8 dereferenceable(8) %3) #18
  ret ptr %4
}

; Function Attrs: mustprogress nounwind uwtable
define linkonce_odr noundef ptr @_ZNKSt15__uniq_ptr_implIN5faiss16DistanceComputerESt14default_deleteIS1_EE6_M_ptrEv(ptr noundef nonnull align 8 dereferenceable(8) %0) #0 comdat align 2 {
  %2 = alloca ptr, align 8
  store ptr %0, ptr %2, align 8, !tbaa !200
  %3 = load ptr, ptr %2, align 8
  %4 = getelementptr inbounds nuw %"class.std::__uniq_ptr_impl.23", ptr %3, i32 0, i32 0
  %5 = call noundef nonnull align 8 dereferenceable(8) ptr @_ZSt3getILm0EJPN5faiss16DistanceComputerESt14default_deleteIS1_EEERKNSt13tuple_elementIXT_ESt5tupleIJDpT0_EEE4typeERKS9_(ptr noundef nonnull align 8 dereferenceable(8) %4) #18
  %6 = load ptr, ptr %5, align 8, !tbaa !195
  ret ptr %6
}

; Function Attrs: mustprogress nounwind uwtable
define linkonce_odr noundef ptr @_ZNKSt10unique_ptrIN5faiss16DistanceComputerESt14default_deleteIS1_EE3getEv(ptr noundef nonnull align 8 dereferenceable(8) %0) #0 comdat align 2 {
  %2 = alloca ptr, align 8
  store ptr %0, ptr %2, align 8, !tbaa !196
  %3 = load ptr, ptr %2, align 8
  %4 = getelementptr inbounds nuw %"class.std::unique_ptr.21", ptr %3, i32 0, i32 0
  %5 = call noundef ptr @_ZNKSt15__uniq_ptr_implIN5faiss16DistanceComputerESt14default_deleteIS1_EE6_M_ptrEv(ptr noundef nonnull align 8 dereferenceable(8) %4) #18
  ret ptr %5
}

; Function Attrs: mustprogress nounwind uwtable
define linkonce_odr noundef nonnull align 8 dereferenceable(8) ptr @_ZNKSt10unique_ptrIN5faiss16DistanceComputerESt14default_deleteIS1_EEdeEv(ptr noundef nonnull align 8 dereferenceable(8) %0) #0 comdat align 2 {
  %2 = alloca ptr, align 8
  store ptr %0, ptr %2, align 8, !tbaa !196
  %3 = load ptr, ptr %2, align 8
  br label %4

4:                                                ; preds = %1
  br label %5

5:                                                ; preds = %4
  br label %6

6:                                                ; preds = %5
  %7 = call noundef ptr @_ZNKSt10unique_ptrIN5faiss16DistanceComputerESt14default_deleteIS1_EE3getEv(ptr noundef nonnull align 8 dereferenceable(8) %3) #18
  ret ptr %7
}

; Function Attrs: mustprogress uwtable
define internal noundef float @_ZN5faiss12_GLOBAL__N_128PreTransformDistanceComputerclEl(ptr noundef nonnull align 8 dereferenceable(32) %0, i64 noundef %1) unnamed_addr #1 align 2 {
  %3 = alloca ptr, align 8
  %4 = alloca i64, align 8
  store ptr %0, ptr %3, align 8, !tbaa !178
  store i64 %1, ptr %4, align 8, !tbaa !9
  %5 = load ptr, ptr %3, align 8
  %6 = getelementptr inbounds nuw %"struct.faiss::(anonymous namespace)::PreTransformDistanceComputer", ptr %5, i32 0, i32 2
  %7 = call noundef nonnull align 8 dereferenceable(8) ptr @_ZNKSt10unique_ptrIN5faiss16DistanceComputerESt14default_deleteIS1_EEdeEv(ptr noundef nonnull align 8 dereferenceable(8) %6) #18
  %8 = load i64, ptr %4, align 8, !tbaa !9
  %9 = load ptr, ptr %7, align 8, !tbaa !47
  %10 = getelementptr inbounds ptr, ptr %9, i64 1
  %11 = load ptr, ptr %10, align 8
  %12 = call noundef float %11(ptr noundef nonnull align 8 dereferenceable(8) %7, i64 noundef %8)
  ret float %12
}